target datalayout = "e-m:e-p270:32:32-p271:32:32-p272:64:64-i64:64-i128:128-f80:128-n8:16:32:64-S128"
target triple = "x86_64-pc-linux-gnu"

%"class.zmq::io_object_t" = type { %"struct.zmq::i_poll_events", ptr }
%"struct.zmq::i_poll_events" = type { ptr }

@stderr = external global ptr, align 8
@.str = private unnamed_addr constant [30 x i8] c"Assertion failed: %s (%s:%d)\0A\00", align 1
@.str.1 = private unnamed_addr constant [11 x i8] c"io_thread_\00", align 1
@.str.2 = private unnamed_addr constant [109 x i8] c"generated/home/dtcxzyw/WorkSpace/Projects/compilers/llvm-opt-benchmark/bench/libzmq/libzmq/src/io_object.cpp\00", align 1
@.str.3 = private unnamed_addr constant [9 x i8] c"!_poller\00", align 1

; Function Attrs: mustprogress uwtable
define void @_ZN3zmq11io_object_t4plugEPNS_11io_thread_tE(ptr noundef nonnull align 8 dereferenceable(16) %0, ptr noundef %1) #0 align 2 {
  %3 = alloca ptr, align 8
  %4 = alloca ptr, align 8
  store ptr %0, ptr %3, align 8, !tbaa !3
  store ptr %1, ptr %4, align 8, !tbaa !8
  %5 = load ptr, ptr %3, align 8
  br label %6

6:                                                ; preds = %2
  %7 = load ptr, ptr %4, align 8, !tbaa !8
  %8 = icmp ne ptr %7, null
  %9 = xor i1 %8, true
  %10 = zext i1 %9 to i64
  %11 = call i64 @llvm.expect.i64(i64 %10, i64 0)
  %12 = icmp ne i64 %11, 0
  br i1 %12, label %13, label %18

13:                                               ; preds = %6
  %14 = load ptr, ptr @stderr, align 8, !tbaa !18
  %15 = call i32 (ptr, ptr, ...) @fprintf(ptr noundef %14, ptr noundef @.str, ptr noundef @.str.1, ptr noundef @.str.2, i32 noundef 20) #8
  %16 = load ptr, ptr @stderr, align 8, !tbaa !18
  %17 = call i32 @fflush(ptr noundef %16)
  call void @_ZN3zmq9zmq_abortEPKc(ptr noundef @.str.1)
  br label %18

18:                                               ; preds = %13, %6
  br label %19

19:                                               ; preds = %18
  br label %20

20:                                               ; preds = %19
  %21 = getelementptr inbounds nuw %"class.zmq::io_object_t", ptr %5, i32 0, i32 1
  %22 = load ptr, ptr %21, align 8, !tbaa !12
  %23 = icmp ne ptr %22, null
  %24 = xor i1 %23, true
  %25 = xor i1 %24, true
  %26 = zext i1 %25 to i64
  %27 = call i64 @llvm.expect.i64(i64 %26, i64 0)
  %28 = icmp ne i64 %27, 0
  br i1 %28, label %29, label %34

29:                                               ; preds = %20
  %30 = load ptr, ptr @stderr, align 8, !tbaa !18
  %31 = call i32 (ptr, ptr, ...) @fprintf(ptr noundef %30, ptr noundef @.str, ptr noundef @.str.3, ptr noundef @.str.2, i32 noundef 21) #8
  %32 = load ptr, ptr @stderr, align 8, !tbaa !18
  %33 = call i32 @fflush(ptr noundef %32)
  call void @_ZN3zmq9zmq_abortEPKc(ptr noundef @.str.3)
  br label %34

34:                                               ; preds = %29, %20
  br label %35

35:                                               ; preds = %34
  %36 = load ptr, ptr %4, align 8, !tbaa !8
  %37 = call noundef ptr @_ZNK3zmq11io_thread_t10get_pollerEv(ptr noundef nonnull align 8 dereferenceable(224) %36)
  %38 = getelementptr inbounds nuw %"class.zmq::io_object_t", ptr %5, i32 0, i32 1
  store ptr %37, ptr %38, align 8, !tbaa !12
  ret void
}