; Function Attrs: mustprogress uwtable
define void @_ZN3zmq11io_object_t4plugEPNS_11io_thread_tE(ptr noundef nonnull align 8 captures(none) dereferenceable(16) %0, ptr noundef %1) local_unnamed_addr #0 align 2 {
  %.not = icmp eq ptr %1, null
  br i1 %.not, label %3, label %8, !prof !12

3:                                                ; preds = %2
  %4 = load ptr, ptr @stderr, align 8, !tbaa !13
  %5 = tail call i32 (ptr, ptr, ...) @fprintf(ptr noundef %4, ptr noundef nonnull @.str, ptr noundef nonnull @.str.1, ptr noundef nonnull @.str.2, i32 noundef 20) #7
  %6 = load ptr, ptr @stderr, align 8, !tbaa !13
  %7 = tail call i32 @fflush(ptr noundef %6)
  tail call void @_ZN3zmq9zmq_abortEPKc(ptr noundef nonnull @.str.1)
  br label %8

8:                                                ; preds = %3, %2
  %9 = getelementptr inbounds nuw i8, ptr %0, i64 8
  %10 = load ptr, ptr %9, align 8, !tbaa !6
  %.not3 = icmp eq ptr %10, null
  br i1 %.not3, label %16, label %11, !prof !15

11:                                               ; preds = %8
  %12 = load ptr, ptr @stderr, align 8, !tbaa !13
  %13 = tail call i32 (ptr, ptr, ...) @fprintf(ptr noundef %12, ptr noundef nonnull @.str, ptr noundef nonnull @.str.3, ptr noundef nonnull @.str.2, i32 noundef 21) #7
  %14 = load ptr, ptr @stderr, align 8, !tbaa !13
  %15 = tail call i32 @fflush(ptr noundef %14)
  tail call void @_ZN3zmq9zmq_abortEPKc(ptr noundef nonnull @.str.3)
  br label %16

16:                                               ; preds = %8, %11
  %17 = tail call noundef ptr @_ZNK3zmq11io_thread_t10get_pollerEv(ptr noundef nonnull align 8 dereferenceable(224) %1)
  store ptr %17, ptr %9, align 8, !tbaa !6
  ret void
}